; Function Attrs: mustprogress uwtable
define hidden void @hb_font_set_scale(ptr noundef %0, i32 noundef %1, i32 noundef %2) local_unnamed_addr #1 {
  %4 = getelementptr inbounds i8, ptr %0, i64 4
  %5 = load atomic i32, ptr %4 monotonic, align 4
  %.not.i = icmp eq i32 %5, 0
  br i1 %.not.i, label %19, label %6

6:                                                ; preds = %3
  %7 = getelementptr inbounds i8, ptr %0, i64 40
  %8 = load i32, ptr %7, align 8
  %9 = icmp eq i32 %8, %1
  br i1 %9, label %10, label %14

10:                                               ; preds = %6
  %11 = getelementptr inbounds i8, ptr %0, i64 44
  %12 = load i32, ptr %11, align 4
  %13 = icmp eq i32 %12, %2
  br i1 %13, label %19, label %14

14:                                               ; preds = %10, %6
  %15 = getelementptr inbounds i8, ptr %0, i64 16
  %16 = load i32, ptr %15, align 8
  %17 = add i32 %16, 1
  store i32 %17, ptr %15, align 8
  store i32 %1, ptr %7, align 8
  %18 = getelementptr inbounds i8, ptr %0, i64 44
  store i32 %2, ptr %18, align 4
  tail call void @_ZN9hb_font_t13mults_changedEv(ptr noundef nonnull align 8 dereferenceable(192) %0)
  br label %19

19:                                               ; preds = %10, %3, %14
  ret void
}